target datalayout = "e-m:e-p270:32:32-p271:32:32-p272:64:64-i64:64-i128:128-f80:128-n8:16:32:64-S128"
target triple = "x86_64-pc-linux-gnu"

%struct.clear_midx_data = type { ptr, i32, ptr }

@.str.67 = private unnamed_addr constant [18 x i8] c"multi-pack-index-\00", align 1
@.str.68 = private unnamed_addr constant [20 x i8] c"failed to remove %s\00", align 1

; Function Attrs: inlinehint nounwind uwtable
define internal zeroext i1 @strip_suffix_mem(ptr noundef %0, ptr noundef %1, ptr noundef %2) #2 {
  %4 = alloca i1, align 1
  %5 = alloca ptr, align 8
  %6 = alloca ptr, align 8
  %7 = alloca ptr, align 8
  %8 = alloca i64, align 8
  %9 = alloca i32, align 4
  store ptr %0, ptr %5, align 8, !tbaa !9
  store ptr %1, ptr %6, align 8, !tbaa !146
  store ptr %2, ptr %7, align 8, !tbaa !9
  call void @llvm.lifetime.start.p0(i64 8, ptr %8) #13
  %10 = load ptr, ptr %7, align 8, !tbaa !9
  %11 = call i64 @strlen(ptr noundef %10) #12
  store i64 %11, ptr %8, align 8, !tbaa !11
  %12 = load ptr, ptr %6, align 8, !tbaa !146
  %13 = load i64, ptr %12, align 8, !tbaa !11
  %14 = load i64, ptr %8, align 8, !tbaa !11
  %15 = icmp ult i64 %13, %14
  br i1 %15, label %27, label %16

16:                                               ; preds = %3
  %17 = load ptr, ptr %5, align 8, !tbaa !9
  %18 = load ptr, ptr %6, align 8, !tbaa !146
  %19 = load i64, ptr %18, align 8, !tbaa !11
  %20 = load i64, ptr %8, align 8, !tbaa !11
  %21 = sub i64 %19, %20
  %22 = getelementptr inbounds nuw i8, ptr %17, i64 %21
  %23 = load ptr, ptr %7, align 8, !tbaa !9
  %24 = load i64, ptr %8, align 8, !tbaa !11
  %25 = call i32 @memcmp(ptr noundef %22, ptr noundef %23, i64 noundef %24) #12
  %26 = icmp ne i32 %25, 0
  br i1 %26, label %27, label %28

27:                                               ; preds = %16, %3
  store i1 false, ptr %4, align 1
  store i32 1, ptr %9, align 4
  br label %33

28:                                               ; preds = %16
  %29 = load i64, ptr %8, align 8, !tbaa !11
  %30 = load ptr, ptr %6, align 8, !tbaa !146
  %31 = load i64, ptr %30, align 8, !tbaa !11
  %32 = sub i64 %31, %29
  store i64 %32, ptr %30, align 8, !tbaa !11
  store i1 true, ptr %4, align 1
  store i32 1, ptr %9, align 4
  br label %33

33:                                               ; preds = %28, %27
  call void @llvm.lifetime.end.p0(i64 8, ptr %8) #13
  %34 = load i1, ptr %4, align 1
  ret i1 %34
}

; Function Attrs: inlinehint nounwind uwtable
define internal zeroext i1 @strip_suffix(ptr noundef %0, ptr noundef %1, ptr noundef %2) #2 {
  %4 = alloca ptr, align 8
  %5 = alloca ptr, align 8
  %6 = alloca ptr, align 8
  store ptr %0, ptr %4, align 8, !tbaa !9
  store ptr %1, ptr %5, align 8, !tbaa !9
  store ptr %2, ptr %6, align 8, !tbaa !146
  %7 = load ptr, ptr %4, align 8, !tbaa !9
  %8 = call i64 @strlen(ptr noundef %7) #12
  %9 = load ptr, ptr %6, align 8, !tbaa !146
  store i64 %8, ptr %9, align 8, !tbaa !11
  %10 = load ptr, ptr %4, align 8, !tbaa !9
  %11 = load ptr, ptr %6, align 8, !tbaa !146
  %12 = load ptr, ptr %5, align 8, !tbaa !9
  %13 = call zeroext i1 @strip_suffix_mem(ptr noundef %10, ptr noundef %11, ptr noundef %12)
  ret i1 %13
}

; Function Attrs: inlinehint nounwind uwtable
define internal i32 @ends_with(ptr noundef %0, ptr noundef %1) #2 {
  %3 = alloca ptr, align 8
  %4 = alloca ptr, align 8
  %5 = alloca i64, align 8
  store ptr %0, ptr %3, align 8, !tbaa !9
  store ptr %1, ptr %4, align 8, !tbaa !9
  call void @llvm.lifetime.start.p0(i64 8, ptr %5) #13
  %6 = load ptr, ptr %3, align 8, !tbaa !9
  %7 = load ptr, ptr %4, align 8, !tbaa !9
  %8 = call zeroext i1 @strip_suffix(ptr noundef %6, ptr noundef %7, ptr noundef %5)
  %9 = zext i1 %8 to i32
  call void @llvm.lifetime.end.p0(i64 8, ptr %5) #13
  ret i32 %9
}

; Function Attrs: nounwind uwtable
define internal void @clear_midx_file_ext(ptr noundef %0, i64 noundef %1, ptr noundef %2, ptr noundef %3) #0 {
  %5 = alloca ptr, align 8
  %6 = alloca i64, align 8
  %7 = alloca ptr, align 8
  %8 = alloca ptr, align 8
  %9 = alloca ptr, align 8
  %10 = alloca i32, align 4
  %11 = alloca i32, align 4
  store ptr %0, ptr %5, align 8, !tbaa !9
  store i64 %1, ptr %6, align 8, !tbaa !11
  store ptr %2, ptr %7, align 8, !tbaa !9
  store ptr %3, ptr %8, align 8, !tbaa !43
  call void @llvm.lifetime.start.p0(i64 8, ptr %9) #13
  %12 = load ptr, ptr %8, align 8, !tbaa !43
  store ptr %12, ptr %9, align 8, !tbaa !113
  call void @llvm.lifetime.start.p0(i64 4, ptr %10) #13
  %13 = load ptr, ptr %7, align 8, !tbaa !9
  %14 = call i32 @starts_with(ptr noundef %13, ptr noundef @.str.67)
  %15 = icmp ne i32 %14, 0
  br i1 %15, label %16, label %23

16:                                               ; preds = %4
  %17 = load ptr, ptr %7, align 8, !tbaa !9
  %18 = load ptr, ptr %9, align 8, !tbaa !113
  %19 = getelementptr inbounds nuw %struct.clear_midx_data, ptr %18, i32 0, i32 2
  %20 = load ptr, ptr %19, align 8, !tbaa !112
  %21 = call i32 @ends_with(ptr noundef %17, ptr noundef %20)
  %22 = icmp ne i32 %21, 0
  br i1 %22, label %24, label %23

23:                                               ; preds = %16, %4
  store i32 1, ptr %11, align 4
  br label %55

24:                                               ; preds = %16
  store i32 0, ptr %10, align 4, !tbaa !40
  br label %25

25:                                               ; preds = %44, %24
  %26 = load i32, ptr %10, align 4, !tbaa !40
  %27 = load ptr, ptr %9, align 8, !tbaa !113
  %28 = getelementptr inbounds nuw %struct.clear_midx_data, ptr %27, i32 0, i32 1
  %29 = load i32, ptr %28, align 8, !tbaa !111
  %30 = icmp ult i32 %26, %29
  br i1 %30, label %31, label %47

31:                                               ; preds = %25
  %32 = load ptr, ptr %9, align 8, !tbaa !113
  %33 = getelementptr inbounds nuw %struct.clear_midx_data, ptr %32, i32 0, i32 0
  %34 = load ptr, ptr %33, align 8, !tbaa !109
  %35 = load i32, ptr %10, align 4, !tbaa !40
  %36 = zext i32 %35 to i64
  %37 = getelementptr inbounds nuw ptr, ptr %34, i64 %36
  %38 = load ptr, ptr %37, align 8, !tbaa !9
  %39 = load ptr, ptr %7, align 8, !tbaa !9
  %40 = call i32 @strcmp(ptr noundef %38, ptr noundef %39) #12
  %41 = icmp ne i32 %40, 0
  br i1 %41, label %43, label %42

42:                                               ; preds = %31
  store i32 1, ptr %11, align 4
  br label %55

43:                                               ; preds = %31
  br label %44

44:                                               ; preds = %43
  %45 = load i32, ptr %10, align 4, !tbaa !40
  %46 = add i32 %45, 1
  store i32 %46, ptr %10, align 4, !tbaa !40
  br label %25, !llvm.loop !115

47:                                               ; preds = %25
  %48 = load ptr, ptr %5, align 8, !tbaa !9
  %49 = call i32 @unlink(ptr noundef %48) #13
  %50 = icmp ne i32 %49, 0
  br i1 %50, label %51, label %54

51:                                               ; preds = %47
  %52 = call ptr @_(ptr noundef @.str.68)
  %53 = load ptr, ptr %5, align 8, !tbaa !9
  call void (ptr, ...) @die_errno(ptr noundef %52, ptr noundef %53) #14
  unreachable

54:                                               ; preds = %47
  store i32 0, ptr %11, align 4
  br label %55

55:                                               ; preds = %54, %42, %23
  call void @llvm.lifetime.end.p0(i64 4, ptr %10) #13
  call void @llvm.lifetime.end.p0(i64 8, ptr %9) #13
  %56 = load i32, ptr %11, align 4
  switch i32 %56, label %58 [
    i32 0, label %57
    i32 1, label %57
  ]

57:                                               ; preds = %55, %55
  ret void

58:                                               ; preds = %55
  unreachable
}