; Function Attrs: nounwind uwtable
define internal void @clear_midx_file_ext(ptr noundef %0, i64 %1, ptr noundef %2, ptr noundef readonly captures(none) %3) #1 {
  %5 = tail call i32 @starts_with(ptr noundef %2, ptr noundef nonnull @.str.67) #22
  %.not = icmp eq i32 %5, 0
  br i1 %.not, label %ends_with.exit.thread, label %6

6:                                                ; preds = %4
  %7 = getelementptr inbounds nuw i8, ptr %3, i64 16
  %8 = load ptr, ptr %7, align 8, !tbaa !101
  %9 = tail call i64 @strlen(ptr noundef nonnull readonly dereferenceable(1) %2) #25
  %10 = tail call i64 @strlen(ptr noundef nonnull readonly dereferenceable(1) %8) #25
  %11 = icmp ult i64 %9, %10
  br i1 %11, label %ends_with.exit.thread, label %ends_with.exit

ends_with.exit:                                   ; preds = %6
  %12 = sub nuw i64 %9, %10
  %13 = getelementptr inbounds nuw i8, ptr %2, i64 %12
  %bcmp.i.i.i = tail call i32 @bcmp(ptr nonnull readonly %13, ptr nonnull readonly %8, i64 %10)
  %.not.i.i.i.not = icmp eq i32 %bcmp.i.i.i, 0
  br i1 %.not.i.i.i.not, label %.preheader, label %ends_with.exit.thread

.preheader:                                       ; preds = %ends_with.exit
  %14 = getelementptr inbounds nuw i8, ptr %3, i64 8
  %15 = load i32, ptr %14, align 8, !tbaa !100
  %.not17 = icmp eq i32 %15, 0
  br i1 %.not17, label %._crit_edge, label %.lr.ph

.lr.ph:                                           ; preds = %.preheader
  %16 = load ptr, ptr %3, align 8, !tbaa !98
  %wide.trip.count = zext i32 %15 to i64
  br label %18

17:                                               ; preds = %18
  %indvars.iv.next = add nuw nsw i64 %indvars.iv, 1
  %exitcond.not = icmp eq i64 %indvars.iv.next, %wide.trip.count
  br i1 %exitcond.not, label %._crit_edge, label %18, !llvm.loop !102

18:                                               ; preds = %.lr.ph, %17
  %indvars.iv = phi i64 [ 0, %.lr.ph ], [ %indvars.iv.next, %17 ]
  %19 = getelementptr inbounds nuw ptr, ptr %16, i64 %indvars.iv
  %20 = load ptr, ptr %19, align 8, !tbaa !4
  %21 = tail call i32 @strcmp(ptr noundef nonnull dereferenceable(1) %20, ptr noundef nonnull dereferenceable(1) %2) #25
  %.not13 = icmp eq i32 %21, 0
  br i1 %.not13, label %ends_with.exit.thread, label %17

._crit_edge:                                      ; preds = %17, %.preheader
  %22 = tail call i32 @unlink(ptr noundef %0) #22
  %.not12 = icmp eq i32 %22, 0
  br i1 %.not12, label %ends_with.exit.thread, label %23

23:                                               ; preds = %._crit_edge
  %24 = tail call fastcc ptr @_(ptr noundef nonnull @.str.68)
  tail call void (ptr, ...) @die_errno(ptr noundef %24, ptr noundef %0) #24
  unreachable

ends_with.exit.thread:                            ; preds = %18, %6, %._crit_edge, %4, %ends_with.exit
  ret void
}